(dp0
S'/home/zack/Pictures/PARKFISH.JPG'
p1
S'a'
p2
sS'/home/zack/Pictures/ZACKFISH.JPG'
p3
S'dark'
p4
sS'/home/zack/Pictures/PC280058.JPG'
p5
S'me'
p6
sS'/home/zack/Pictures/ZACKTOILET.JPG'
p7
S'zack'
p8
sS'/home/zack/Pictures/liberty_or_death.jpg'
p9
S'liberty'
p10
sS'/home/zack/Pictures/PC250032.JPG'
p11
S'v'
p12
sS'/home/zack/Pictures/PC250023.JPG'
p13
S'max'
p14
sS'/home/zack/Pictures/SNOWMAN02.JPG'
p15
S'dad'
p16
sS'/home/zack/Pictures/BEARGRASS.JPG'
p17
S'grass'
p18
sS'/home/zack/Pictures/MAX_DEW.JPG'
p19
S'max'
p20
sS'/home/zack/Pictures/PC250022.JPG'
p21
S'max'
p22
sS'/home/zack/Pictures/ZACKMAXCREEK2.JPG'
p23
S'max'
p24
sS'/home/zack/Pictures/PC280060.JPG'
p25
S'dark'
p26
sS'/home/zack/Pictures/ZACKMAXFISH.JPG'
p27
S'v'
p28
sS'/home/zack/Pictures/PC260050.JPG'
p29
S'bbb'
p30
sS'/home/zack/Pictures/PC280057.JPG'
p31
S'dad'
p32
s.